target datalayout = "e-m:e-p270:32:32-p271:32:32-p272:64:64-i64:64-i128:128-f80:128-n8:16:32:64-S128"
target triple = "x86_64-pc-linux-gnu"

%struct.mbedtls_cipher_info_t = type { i32, i32, i32, ptr, i32, i32, i32, ptr }
%struct.mbedtls_cipher_context_t = type { ptr, i32, i32, [16 x i8], i64, [16 x i8], i64, ptr }

; Function Attrs: mustprogress uwtable
define hidden i32 @mbedtls_cipher_write_tag(ptr noundef %0, ptr noundef %1, i64 noundef %2) #4 {
  %4 = alloca i32, align 4
  %5 = alloca ptr, align 8
  %6 = alloca ptr, align 8
  %7 = alloca i64, align 8
  %8 = alloca i64, align 8
  store ptr %0, ptr %5, align 8, !tbaa !36
  store ptr %1, ptr %6, align 8, !tbaa !20
  store i64 %2, ptr %7, align 8, !tbaa !52
  br label %9

9:                                                ; preds = %3
  br label %10

10:                                               ; preds = %9
  br label %11

11:                                               ; preds = %10
  br label %12

12:                                               ; preds = %11
  %13 = load ptr, ptr %5, align 8, !tbaa !36
  %14 = getelementptr inbounds nuw %struct.mbedtls_cipher_context_t, ptr %13, i32 0, i32 0
  %15 = load ptr, ptr %14, align 8, !tbaa !42
  %16 = icmp eq ptr %15, null
  br i1 %16, label %17, label %18

17:                                               ; preds = %12
  store i32 -24832, ptr %4, align 4
  br label %39

18:                                               ; preds = %12
  %19 = load ptr, ptr %5, align 8, !tbaa !36
  %20 = getelementptr inbounds nuw %struct.mbedtls_cipher_context_t, ptr %19, i32 0, i32 2
  %21 = load i32, ptr %20, align 4, !tbaa !49
  %22 = icmp ne i32 1, %21
  br i1 %22, label %23, label %24

23:                                               ; preds = %18
  store i32 -24832, ptr %4, align 4
  br label %39

24:                                               ; preds = %18
  %25 = load ptr, ptr %5, align 8, !tbaa !36
  %26 = getelementptr inbounds nuw %struct.mbedtls_cipher_context_t, ptr %25, i32 0, i32 0
  %27 = load ptr, ptr %26, align 8, !tbaa !42
  %28 = getelementptr inbounds nuw %struct.mbedtls_cipher_info_t, ptr %27, i32 0, i32 1
  %29 = load i32, ptr %28, align 4, !tbaa !34
  %30 = icmp eq i32 6, %29
  br i1 %30, label %31, label %38

31:                                               ; preds = %24
  call void @llvm.lifetime.start.p0(i64 8, ptr %8) #8
  %32 = load ptr, ptr %5, align 8, !tbaa !36
  %33 = getelementptr inbounds nuw %struct.mbedtls_cipher_context_t, ptr %32, i32 0, i32 7
  %34 = load ptr, ptr %33, align 8, !tbaa !38
  %35 = load ptr, ptr %6, align 8, !tbaa !20
  %36 = load i64, ptr %7, align 8, !tbaa !52
  %37 = call i32 @mbedtls_gcm_finish(ptr noundef %34, ptr noundef null, i64 noundef 0, ptr noundef %8, ptr noundef %35, i64 noundef %36)
  store i32 %37, ptr %4, align 4
  call void @llvm.lifetime.end.p0(i64 8, ptr %8) #8
  br label %39

38:                                               ; preds = %24
  store i32 0, ptr %4, align 4
  br label %39

39:                                               ; preds = %38, %31, %23, %17
  %40 = load i32, ptr %4, align 4
  ret i32 %40
}