; Function Attrs: mustprogress uwtable
define hidden i32 @mbedtls_cipher_write_tag(ptr noundef readonly captures(none) %0, ptr noundef %1, i64 noundef %2) local_unnamed_addr #8 {
  %4 = alloca i64, align 8
  %5 = load ptr, ptr %0, align 8, !tbaa !33
  %6 = icmp eq ptr %5, null
  br i1 %6, label %18, label %7

7:                                                ; preds = %3
  %8 = getelementptr inbounds nuw i8, ptr %0, i64 12
  %9 = load i32, ptr %8, align 4, !tbaa !38
  %.not = icmp eq i32 %9, 1
  br i1 %.not, label %10, label %18

10:                                               ; preds = %7
  %11 = getelementptr inbounds nuw i8, ptr %5, i64 4
  %12 = load i32, ptr %11, align 4, !tbaa !27
  %13 = icmp eq i32 %12, 6
  br i1 %13, label %14, label %18

14:                                               ; preds = %10
  call void @llvm.lifetime.start.p0(i64 8, ptr nonnull %4) #14
  %15 = getelementptr inbounds nuw i8, ptr %0, i64 64
  %16 = load ptr, ptr %15, align 8, !tbaa !29
  %17 = call i32 @mbedtls_gcm_finish(ptr noundef %16, ptr noundef null, i64 noundef 0, ptr noundef nonnull %4, ptr noundef %1, i64 noundef %2)
  call void @llvm.lifetime.end.p0(i64 8, ptr nonnull %4) #14
  br label %18

18:                                               ; preds = %10, %7, %3, %14
  %.0 = phi i32 [ %17, %14 ], [ -24832, %3 ], [ -24832, %7 ], [ 0, %10 ]
  ret i32 %.0
}